target datalayout = "e-m:e-p270:32:32-p271:32:32-p272:64:64-i64:64-i128:128-f80:128-n8:16:32:64-S128"
target triple = "x86_64-pc-linux-gnu"

%struct.tng_atom = type { ptr, i64, ptr, ptr }
%struct.tng_molecule = type { i64, i64, i64, i64, i64, i64, ptr, ptr, ptr, ptr, ptr }
%struct.tng_chain = type { ptr, i64, ptr, i64, ptr }
%struct.tng_residue = type { ptr, i64, ptr, i64, i64 }

; Function Attrs: nounwind uwtable
define i32 @tng_residue_atom_add(ptr noundef %0, ptr noundef %1, ptr noundef %2, ptr noundef %3, ptr noundef %4) #0 {
  %6 = alloca ptr, align 8
  %7 = alloca ptr, align 8
  %8 = alloca ptr, align 8
  %9 = alloca ptr, align 8
  %10 = alloca ptr, align 8
  %11 = alloca i64, align 8
  store ptr %0, ptr %6, align 8, !tbaa !3
  store ptr %1, ptr %7, align 8, !tbaa !18
  store ptr %2, ptr %8, align 8, !tbaa !19
  store ptr %3, ptr %9, align 8, !tbaa !19
  store ptr %4, ptr %10, align 8, !tbaa !94
  call void @llvm.lifetime.start.p0(i64 8, ptr %11) #11
  %12 = load ptr, ptr %7, align 8, !tbaa !18
  %13 = getelementptr inbounds nuw %struct.tng_residue, ptr %12, i32 0, i32 0
  %14 = load ptr, ptr %13, align 8, !tbaa !93
  %15 = getelementptr inbounds nuw %struct.tng_chain, ptr %14, i32 0, i32 0
  %16 = load ptr, ptr %15, align 8, !tbaa !92
  %17 = getelementptr inbounds nuw %struct.tng_molecule, ptr %16, i32 0, i32 4
  %18 = load i64, ptr %17, align 8, !tbaa !54
  %19 = icmp ne i64 %18, 0
  br i1 %19, label %20, label %40

20:                                               ; preds = %5
  %21 = load ptr, ptr %7, align 8, !tbaa !18
  %22 = getelementptr inbounds nuw %struct.tng_residue, ptr %21, i32 0, i32 0
  %23 = load ptr, ptr %22, align 8, !tbaa !93
  %24 = getelementptr inbounds nuw %struct.tng_chain, ptr %23, i32 0, i32 0
  %25 = load ptr, ptr %24, align 8, !tbaa !92
  %26 = getelementptr inbounds nuw %struct.tng_molecule, ptr %25, i32 0, i32 9
  %27 = load ptr, ptr %26, align 8, !tbaa !55
  %28 = load ptr, ptr %7, align 8, !tbaa !18
  %29 = getelementptr inbounds nuw %struct.tng_residue, ptr %28, i32 0, i32 0
  %30 = load ptr, ptr %29, align 8, !tbaa !93
  %31 = getelementptr inbounds nuw %struct.tng_chain, ptr %30, i32 0, i32 0
  %32 = load ptr, ptr %31, align 8, !tbaa !92
  %33 = getelementptr inbounds nuw %struct.tng_molecule, ptr %32, i32 0, i32 4
  %34 = load i64, ptr %33, align 8, !tbaa !54
  %35 = sub nsw i64 %34, 1
  %36 = getelementptr inbounds %struct.tng_atom, ptr %27, i64 %35
  %37 = getelementptr inbounds nuw %struct.tng_atom, ptr %36, i32 0, i32 1
  %38 = load i64, ptr %37, align 8, !tbaa !80
  %39 = add nsw i64 %38, 1
  store i64 %39, ptr %11, align 8, !tbaa !26
  br label %41

40:                                               ; preds = %5
  store i64 0, ptr %11, align 8, !tbaa !26
  br label %41

41:                                               ; preds = %40, %20
  %42 = load ptr, ptr %6, align 8, !tbaa !3
  %43 = load ptr, ptr %7, align 8, !tbaa !18
  %44 = load ptr, ptr %8, align 8, !tbaa !19
  %45 = load ptr, ptr %9, align 8, !tbaa !19
  %46 = load i64, ptr %11, align 8, !tbaa !26
  %47 = load ptr, ptr %10, align 8, !tbaa !94
  %48 = call i32 @tng_residue_atom_w_id_add(ptr noundef %42, ptr noundef %43, ptr noundef %44, ptr noundef %45, i64 noundef %46, ptr noundef %47)
  call void @llvm.lifetime.end.p0(i64 8, ptr %11) #11
  ret i32 %48
}