; Function Attrs: nounwind uwtable
define range(i32 0, 3) i32 @tng_residue_atom_add(ptr readnone captures(none) %0, ptr noundef %1, ptr noundef readonly captures(none) %2, ptr noundef readonly captures(none) %3, ptr noundef captures(none) %4) local_unnamed_addr #4 {
  %6 = load ptr, ptr %1, align 8, !tbaa !85
  %7 = load ptr, ptr %6, align 8, !tbaa !81
  %8 = getelementptr inbounds nuw i8, ptr %7, i64 32
  %9 = load i64, ptr %8, align 8, !tbaa !48
  %.not = icmp eq i64 %9, 0
  br i1 %.not, label %17, label %10

10:                                               ; preds = %5
  %11 = getelementptr inbounds nuw i8, ptr %7, i64 72
  %12 = load ptr, ptr %11, align 8, !tbaa !66
  %13 = getelementptr %struct.tng_atom, ptr %12, i64 %9
  %14 = getelementptr i8, ptr %13, i64 -24
  %15 = load i64, ptr %14, align 8, !tbaa !68
  %16 = add nsw i64 %15, 1
  br label %17

17:                                               ; preds = %5, %10
  %.0 = phi i64 [ %16, %10 ], [ 0, %5 ]
  %18 = tail call i32 @tng_residue_atom_w_id_add(ptr poison, ptr noundef nonnull %1, ptr noundef %2, ptr noundef %3, i64 noundef %.0, ptr noundef %4)
  ret i32 %18
}